; Function Attrs: mustprogress nounwind uwtable
define void @_ZN8QuantLib12IndexManager14clearHistoriesEv(ptr noundef nonnull align 8 dereferenceable(48) %this) local_unnamed_addr #4 align 2 personality ptr @__gxx_personality_v0 {
entry:
  %_M_parent.i.i.i.i = getelementptr inbounds i8, ptr %this, i64 16
  %0 = load ptr, ptr %_M_parent.i.i.i.i, align 8, !tbaa !3
  invoke void @_ZNSt8_Rb_treeINSt7__cxx1112basic_stringIcSt11char_traitsIcESaIcEEESt4pairIKS5_N8QuantLib15ObservableValueINS8_10TimeSeriesIdSt3mapINS8_4DateEdSt4lessISC_ESaIS6_IKSC_dEEEEEEEESt10_Select1stISL_ENS8_12IndexManager22CaseInsensitiveCompareESaISL_EE8_M_eraseEPSt13_Rb_tree_nodeISL_E(ptr noundef nonnull align 8 dereferenceable(48) %this, ptr noundef %0)
          to label %_ZNSt3mapINSt7__cxx1112basic_stringIcSt11char_traitsIcESaIcEEEN8QuantLib15ObservableValueINS6_10TimeSeriesIdS_INS6_4DateEdSt4lessIS9_ESaISt4pairIKS9_dEEEEEEENS6_12IndexManager22CaseInsensitiveCompareESaISC_IKS5_SI_EEE5clearEv.exit unwind label %terminate.lpad.i.i

terminate.lpad.i.i:                               ; preds = %entry
  %1 = landingpad { ptr, i32 }
          catch ptr null
  %2 = extractvalue { ptr, i32 } %1, 0
  tail call void @__clang_call_terminate(ptr %2) #18
  unreachable

_ZNSt3mapINSt7__cxx1112basic_stringIcSt11char_traitsIcESaIcEEEN8QuantLib15ObservableValueINS6_10TimeSeriesIdS_INS6_4DateEdSt4lessIS9_ESaISt4pairIKS9_dEEEEEEENS6_12IndexManager22CaseInsensitiveCompareESaISC_IKS5_SI_EEE5clearEv.exit: ; preds = %entry
  %add.ptr.i.i = getelementptr inbounds i8, ptr %this, i64 8
  store ptr null, ptr %_M_parent.i.i.i.i, align 8, !tbaa !3
  %_M_left.i.i.i = getelementptr inbounds i8, ptr %this, i64 24
  store ptr %add.ptr.i.i, ptr %_M_left.i.i.i, align 8, !tbaa !20
  %_M_right.i.i.i = getelementptr inbounds i8, ptr %this, i64 32
  store ptr %add.ptr.i.i, ptr %_M_right.i.i.i, align 8, !tbaa !21
  %_M_node_count.i.i.i = getelementptr inbounds i8, ptr %this, i64 40
  store i64 0, ptr %_M_node_count.i.i.i, align 8, !tbaa !22
  ret void
}